target datalayout = "e-m:e-p270:32:32-p271:32:32-p272:64:64-i64:64-i128:128-f80:128-n8:16:32:64-S128"
target triple = "x86_64-pc-linux-gnu"

%struct.decNumber = type { i32, i32, i8, [1 x i16] }
%struct.decContext = type { i32, i32, i32, i32, i32, i32, i8 }

; Function Attrs: nounwind uwtable
define dso_local ptr @decNumberZero(ptr noundef %0) #0 {
  %2 = alloca ptr, align 8
  store ptr %0, ptr %2, align 8, !tbaa !4
  %3 = load ptr, ptr %2, align 8, !tbaa !4
  %4 = getelementptr inbounds nuw %struct.decNumber, ptr %3, i32 0, i32 2
  store i8 0, ptr %4, align 4, !tbaa !10
  %5 = load ptr, ptr %2, align 8, !tbaa !4
  %6 = getelementptr inbounds nuw %struct.decNumber, ptr %5, i32 0, i32 1
  store i32 0, ptr %6, align 4, !tbaa !19
  %7 = load ptr, ptr %2, align 8, !tbaa !4
  %8 = getelementptr inbounds nuw %struct.decNumber, ptr %7, i32 0, i32 0
  store i32 1, ptr %8, align 4, !tbaa !18
  %9 = load ptr, ptr %2, align 8, !tbaa !4
  %10 = getelementptr inbounds nuw %struct.decNumber, ptr %9, i32 0, i32 3
  %11 = getelementptr inbounds [1 x i16], ptr %10, i64 0, i64 0
  store i16 0, ptr %11, align 2, !tbaa !14
  %12 = load ptr, ptr %2, align 8, !tbaa !4
  ret ptr %12
}

; Function Attrs: nounwind uwtable
define internal void @decFinalize(ptr noundef %0, ptr noundef %1, ptr noundef %2, ptr noundef %3) #0 {
  %5 = alloca ptr, align 8
  %6 = alloca ptr, align 8
  %7 = alloca ptr, align 8
  %8 = alloca ptr, align 8
  %9 = alloca i32, align 4
  %10 = alloca i32, align 4
  %11 = alloca i32, align 4
  %12 = alloca %struct.decNumber, align 4
  %13 = alloca i32, align 4
  store ptr %0, ptr %5, align 8, !tbaa !4
  store ptr %1, ptr %6, align 8, !tbaa !4
  store ptr %2, ptr %7, align 8, !tbaa !40
  store ptr %3, ptr %8, align 8, !tbaa !40
  call void @llvm.lifetime.start.p0(i64 4, ptr %9) #7
  call void @llvm.lifetime.start.p0(i64 4, ptr %10) #7
  %14 = load ptr, ptr %6, align 8, !tbaa !4
  %15 = getelementptr inbounds nuw %struct.decContext, ptr %14, i32 0, i32 2
  %16 = load i32, ptr %15, align 4, !tbaa !38
  %17 = load ptr, ptr %5, align 8, !tbaa !4
  %18 = getelementptr inbounds nuw %struct.decNumber, ptr %17, i32 0, i32 0
  %19 = load i32, ptr %18, align 4, !tbaa !18
  %20 = sub nsw i32 %16, %19
  %21 = add nsw i32 %20, 1
  store i32 %21, ptr %10, align 4, !tbaa !8
  %22 = load ptr, ptr %5, align 8, !tbaa !4
  %23 = getelementptr inbounds nuw %struct.decNumber, ptr %22, i32 0, i32 1
  %24 = load i32, ptr %23, align 4, !tbaa !19
  %25 = load i32, ptr %10, align 4, !tbaa !8
  %26 = icmp sle i32 %24, %25
  br i1 %26, label %27, label %75

27:                                               ; preds = %4
  call void @llvm.lifetime.start.p0(i64 4, ptr %11) #7
  call void @llvm.lifetime.start.p0(i64 12, ptr %12) #7
  %28 = load ptr, ptr %5, align 8, !tbaa !4
  %29 = getelementptr inbounds nuw %struct.decNumber, ptr %28, i32 0, i32 1
  %30 = load i32, ptr %29, align 4, !tbaa !19
  %31 = load i32, ptr %10, align 4, !tbaa !8
  %32 = icmp slt i32 %30, %31
  br i1 %32, label %33, label %38

33:                                               ; preds = %27
  %34 = load ptr, ptr %5, align 8, !tbaa !4
  %35 = load ptr, ptr %6, align 8, !tbaa !4
  %36 = load ptr, ptr %7, align 8, !tbaa !40
  %37 = load ptr, ptr %8, align 8, !tbaa !40
  call void @decSetSubnormal(ptr noundef %34, ptr noundef %35, ptr noundef %36, ptr noundef %37)
  store i32 1, ptr %13, align 4
  br label %72

38:                                               ; preds = %27
  %39 = call ptr @decNumberZero(ptr noundef %12)
  %40 = getelementptr inbounds nuw %struct.decNumber, ptr %12, i32 0, i32 3
  %41 = getelementptr inbounds [1 x i16], ptr %40, i64 0, i64 0
  store i16 1, ptr %41, align 2, !tbaa !14
  %42 = load ptr, ptr %6, align 8, !tbaa !4
  %43 = getelementptr inbounds nuw %struct.decContext, ptr %42, i32 0, i32 2
  %44 = load i32, ptr %43, align 4, !tbaa !38
  %45 = getelementptr inbounds nuw %struct.decNumber, ptr %12, i32 0, i32 1
  store i32 %44, ptr %45, align 4, !tbaa !19
  %46 = load ptr, ptr %5, align 8, !tbaa !4
  %47 = call i32 @decCompare(ptr noundef %46, ptr noundef %12, i8 noundef zeroext 1)
  store i32 %47, ptr %11, align 4, !tbaa !8
  %48 = load i32, ptr %11, align 4, !tbaa !8
  %49 = icmp eq i32 %48, -2147483648
  br i1 %49, label %50, label %54

50:                                               ; preds = %38
  %51 = load ptr, ptr %8, align 8, !tbaa !40
  %52 = load i32, ptr %51, align 4, !tbaa !8
  %53 = or i32 %52, 16
  store i32 %53, ptr %51, align 4, !tbaa !8
  store i32 1, ptr %13, align 4
  br label %72

54:                                               ; preds = %38
  %55 = load ptr, ptr %7, align 8, !tbaa !40
  %56 = load i32, ptr %55, align 4, !tbaa !8
  %57 = icmp slt i32 %56, 0
  br i1 %57, label %58, label %71

58:                                               ; preds = %54
  %59 = load i32, ptr %11, align 4, !tbaa !8
  %60 = icmp eq i32 %59, 0
  br i1 %60, label %61, label %71

61:                                               ; preds = %58
  %62 = load ptr, ptr %5, align 8, !tbaa !4
  %63 = load ptr, ptr %6, align 8, !tbaa !4
  %64 = load ptr, ptr %7, align 8, !tbaa !40
  %65 = load i32, ptr %64, align 4, !tbaa !8
  %66 = load ptr, ptr %8, align 8, !tbaa !40
  call void @decApplyRound(ptr noundef %62, ptr noundef %63, i32 noundef %65, ptr noundef %66)
  %67 = load ptr, ptr %5, align 8, !tbaa !4
  %68 = load ptr, ptr %6, align 8, !tbaa !4
  %69 = load ptr, ptr %7, align 8, !tbaa !40
  %70 = load ptr, ptr %8, align 8, !tbaa !40
  call void @decSetSubnormal(ptr noundef %67, ptr noundef %68, ptr noundef %69, ptr noundef %70)
  store i32 1, ptr %13, align 4
  br label %72

71:                                               ; preds = %58, %54
  store i32 0, ptr %13, align 4
  br label %72

72:                                               ; preds = %71, %61, %50, %33
  call void @llvm.lifetime.end.p0(i64 12, ptr %12) #7
  call void @llvm.lifetime.end.p0(i64 4, ptr %11) #7
  %73 = load i32, ptr %13, align 4
  switch i32 %73, label %173 [
    i32 0, label %74
  ]

74:                                               ; preds = %72
  br label %75

75:                                               ; preds = %74, %4
  %76 = load ptr, ptr %7, align 8, !tbaa !40
  %77 = load i32, ptr %76, align 4, !tbaa !8
  %78 = icmp ne i32 %77, 0
  br i1 %78, label %79, label %85

79:                                               ; preds = %75
  %80 = load ptr, ptr %5, align 8, !tbaa !4
  %81 = load ptr, ptr %6, align 8, !tbaa !4
  %82 = load ptr, ptr %7, align 8, !tbaa !40
  %83 = load i32, ptr %82, align 4, !tbaa !8
  %84 = load ptr, ptr %8, align 8, !tbaa !40
  call void @decApplyRound(ptr noundef %80, ptr noundef %81, i32 noundef %83, ptr noundef %84)
  br label %85

85:                                               ; preds = %79, %75
  %86 = load ptr, ptr %5, align 8, !tbaa !4
  %87 = getelementptr inbounds nuw %struct.decNumber, ptr %86, i32 0, i32 1
  %88 = load i32, ptr %87, align 4, !tbaa !19
  %89 = load ptr, ptr %6, align 8, !tbaa !4
  %90 = getelementptr inbounds nuw %struct.decContext, ptr %89, i32 0, i32 1
  %91 = load i32, ptr %90, align 4, !tbaa !39
  %92 = load ptr, ptr %6, align 8, !tbaa !4
  %93 = getelementptr inbounds nuw %struct.decContext, ptr %92, i32 0, i32 0
  %94 = load i32, ptr %93, align 4, !tbaa !33
  %95 = sub nsw i32 %91, %94
  %96 = add nsw i32 %95, 1
  %97 = icmp sle i32 %88, %96
  br i1 %97, label %98, label %99

98:                                               ; preds = %85
  store i32 1, ptr %13, align 4
  br label %173

99:                                               ; preds = %85
  %100 = load ptr, ptr %5, align 8, !tbaa !4
  %101 = getelementptr inbounds nuw %struct.decNumber, ptr %100, i32 0, i32 1
  %102 = load i32, ptr %101, align 4, !tbaa !19
  %103 = load ptr, ptr %6, align 8, !tbaa !4
  %104 = getelementptr inbounds nuw %struct.decContext, ptr %103, i32 0, i32 1
  %105 = load i32, ptr %104, align 4, !tbaa !39
  %106 = load ptr, ptr %5, align 8, !tbaa !4
  %107 = getelementptr inbounds nuw %struct.decNumber, ptr %106, i32 0, i32 0
  %108 = load i32, ptr %107, align 4, !tbaa !18
  %109 = sub nsw i32 %105, %108
  %110 = add nsw i32 %109, 1
  %111 = icmp sgt i32 %102, %110
  br i1 %111, label %112, label %116

112:                                              ; preds = %99
  %113 = load ptr, ptr %5, align 8, !tbaa !4
  %114 = load ptr, ptr %6, align 8, !tbaa !4
  %115 = load ptr, ptr %8, align 8, !tbaa !40
  call void @decSetOverflow(ptr noundef %113, ptr noundef %114, ptr noundef %115)
  store i32 1, ptr %13, align 4
  br label %173

116:                                              ; preds = %99
  %117 = load ptr, ptr %6, align 8, !tbaa !4
  %118 = getelementptr inbounds nuw %struct.decContext, ptr %117, i32 0, i32 6
  %119 = load i8, ptr %118, align 4, !tbaa !35
  %120 = icmp ne i8 %119, 0
  br i1 %120, label %122, label %121

121:                                              ; preds = %116
  store i32 1, ptr %13, align 4
  br label %173

122:                                              ; preds = %116
  %123 = load ptr, ptr %5, align 8, !tbaa !4
  %124 = getelementptr inbounds nuw %struct.decNumber, ptr %123, i32 0, i32 1
  %125 = load i32, ptr %124, align 4, !tbaa !19
  %126 = load ptr, ptr %6, align 8, !tbaa !4
  %127 = getelementptr inbounds nuw %struct.decContext, ptr %126, i32 0, i32 1
  %128 = load i32, ptr %127, align 4, !tbaa !39
  %129 = load ptr, ptr %6, align 8, !tbaa !4
  %130 = getelementptr inbounds nuw %struct.decContext, ptr %129, i32 0, i32 0
  %131 = load i32, ptr %130, align 4, !tbaa !33
  %132 = sub nsw i32 %128, %131
  %133 = add nsw i32 %132, 1
  %134 = sub nsw i32 %125, %133
  store i32 %134, ptr %9, align 4, !tbaa !8
  %135 = load ptr, ptr %5, align 8, !tbaa !4
  %136 = getelementptr inbounds nuw %struct.decNumber, ptr %135, i32 0, i32 3
  %137 = getelementptr inbounds [1 x i16], ptr %136, i64 0, i64 0
  %138 = load i16, ptr %137, align 2, !tbaa !14
  %139 = zext i16 %138 to i32
  %140 = icmp eq i32 %139, 0
  br i1 %140, label %141, label %153

141:                                              ; preds = %122
  %142 = load ptr, ptr %5, align 8, !tbaa !4
  %143 = getelementptr inbounds nuw %struct.decNumber, ptr %142, i32 0, i32 0
  %144 = load i32, ptr %143, align 4, !tbaa !18
  %145 = icmp eq i32 %144, 1
  br i1 %145, label %146, label %153

146:                                              ; preds = %141
  %147 = load ptr, ptr %5, align 8, !tbaa !4
  %148 = getelementptr inbounds nuw %struct.decNumber, ptr %147, i32 0, i32 2
  %149 = load i8, ptr %148, align 4, !tbaa !10
  %150 = zext i8 %149 to i32
  %151 = and i32 %150, 112
  %152 = icmp eq i32 %151, 0
  br i1 %152, label %164, label %153

153:                                              ; preds = %146, %141, %122
  %154 = load ptr, ptr %5, align 8, !tbaa !4
  %155 = getelementptr inbounds nuw %struct.decNumber, ptr %154, i32 0, i32 3
  %156 = getelementptr inbounds [1 x i16], ptr %155, i64 0, i64 0
  %157 = load ptr, ptr %5, align 8, !tbaa !4
  %158 = getelementptr inbounds nuw %struct.decNumber, ptr %157, i32 0, i32 0
  %159 = load i32, ptr %158, align 4, !tbaa !18
  %160 = load i32, ptr %9, align 4, !tbaa !8
  %161 = call i32 @decShiftToMost(ptr noundef %156, i32 noundef %159, i32 noundef %160)
  %162 = load ptr, ptr %5, align 8, !tbaa !4
  %163 = getelementptr inbounds nuw %struct.decNumber, ptr %162, i32 0, i32 0
  store i32 %161, ptr %163, align 4, !tbaa !18
  br label %164

164:                                              ; preds = %153, %146
  %165 = load i32, ptr %9, align 4, !tbaa !8
  %166 = load ptr, ptr %5, align 8, !tbaa !4
  %167 = getelementptr inbounds nuw %struct.decNumber, ptr %166, i32 0, i32 1
  %168 = load i32, ptr %167, align 4, !tbaa !19
  %169 = sub nsw i32 %168, %165
  store i32 %169, ptr %167, align 4, !tbaa !19
  %170 = load ptr, ptr %8, align 8, !tbaa !40
  %171 = load i32, ptr %170, align 4, !tbaa !8
  %172 = or i32 %171, 1024
  store i32 %172, ptr %170, align 4, !tbaa !8
  store i32 1, ptr %13, align 4
  br label %173

173:                                              ; preds = %164, %121, %112, %98, %72
  call void @llvm.lifetime.end.p0(i64 4, ptr %10) #7
  call void @llvm.lifetime.end.p0(i64 4, ptr %9) #7
  ret void
}