; Function Attrs: nounwind uwtable
define internal fastcc void @decFinalize(ptr noundef %0, ptr noundef readonly captures(none) %1, ptr noundef nonnull captures(none) %2, ptr noundef nonnull captures(none) %3) unnamed_addr #4 {
  %5 = alloca %struct.decNumber, align 4
  %6 = getelementptr inbounds nuw i8, ptr %1, i64 8
  %7 = load i32, ptr %6, align 4, !tbaa !30
  %8 = load i32, ptr %0, align 4, !tbaa !10
  %9 = sub nsw i32 %7, %8
  %10 = add nsw i32 %9, 1
  %11 = getelementptr inbounds nuw i8, ptr %0, i64 4
  %12 = load i32, ptr %11, align 4, !tbaa !9
  %.not = icmp sgt i32 %12, %10
  br i1 %.not, label %._crit_edge, label %13

._crit_edge:                                      ; preds = %4
  %.pre = load i32, ptr %2, align 4, !tbaa !16
  br label %30

13:                                               ; preds = %4
  call void @llvm.lifetime.start.p0(i64 12, ptr nonnull %5) #18
  %.not59 = icmp sgt i32 %12, %9
  br i1 %.not59, label %15, label %14

14:                                               ; preds = %13
  tail call fastcc void @decSetSubnormal(ptr noundef nonnull %0, ptr noundef nonnull %1, ptr noundef %2, ptr noundef %3)
  br label %.critedge

15:                                               ; preds = %13
  %16 = getelementptr inbounds nuw i8, ptr %5, i64 8
  store i8 0, ptr %16, align 4, !tbaa !4
  %17 = getelementptr inbounds nuw i8, ptr %5, i64 4
  store i32 1, ptr %5, align 4, !tbaa !10
  %18 = getelementptr inbounds nuw i8, ptr %5, i64 10
  store i16 1, ptr %18, align 2, !tbaa !11
  store i32 %7, ptr %17, align 4, !tbaa !9
  %19 = call fastcc i32 @decCompare(ptr noundef nonnull %0, ptr noundef nonnull %5, i8 noundef zeroext 1)
  %20 = icmp eq i32 %19, -2147483648
  br i1 %20, label %21, label %24

21:                                               ; preds = %15
  %22 = load i32, ptr %3, align 4, !tbaa !16
  %23 = or i32 %22, 16
  store i32 %23, ptr %3, align 4, !tbaa !16
  br label %.critedge

24:                                               ; preds = %15
  %25 = load i32, ptr %2, align 4, !tbaa !16
  %26 = icmp slt i32 %25, 0
  %27 = icmp eq i32 %19, 0
  %or.cond = and i1 %27, %26
  br i1 %or.cond, label %28, label %29

28:                                               ; preds = %24
  call fastcc void @decApplyRound(ptr noundef nonnull %0, ptr noundef nonnull %1, i32 noundef %25, ptr noundef %3)
  call fastcc void @decSetSubnormal(ptr noundef nonnull %0, ptr noundef nonnull %1, ptr noundef %2, ptr noundef %3)
  br label %.critedge

29:                                               ; preds = %24
  call void @llvm.lifetime.end.p0(i64 12, ptr nonnull %5) #18
  br label %30

30:                                               ; preds = %._crit_edge, %29
  %31 = phi i32 [ %.pre, %._crit_edge ], [ %25, %29 ]
  %.not60 = icmp eq i32 %31, 0
  br i1 %.not60, label %33, label %32

32:                                               ; preds = %30
  call fastcc void @decApplyRound(ptr noundef nonnull %0, ptr noundef nonnull %1, i32 noundef %31, ptr noundef %3)
  br label %33

33:                                               ; preds = %32, %30
  %34 = load i32, ptr %11, align 4, !tbaa !9
  %35 = getelementptr inbounds nuw i8, ptr %1, i64 4
  %36 = load i32, ptr %35, align 4, !tbaa !31
  %37 = load i32, ptr %1, align 4, !tbaa !25
  %38 = sub nsw i32 %36, %37
  %39 = add nsw i32 %38, 1
  %.not61 = icmp sgt i32 %34, %39
  br i1 %.not61, label %40, label %67

40:                                               ; preds = %33
  %41 = load i32, ptr %0, align 4, !tbaa !10
  %42 = add i32 %36, 1
  %43 = sub i32 %42, %41
  %44 = icmp sgt i32 %34, %43
  br i1 %44, label %45, label %46

45:                                               ; preds = %40
  call fastcc void @decSetOverflow(ptr noundef nonnull %0, ptr noundef nonnull %1, ptr noundef %3)
  br label %67

46:                                               ; preds = %40
  %47 = getelementptr inbounds nuw i8, ptr %1, i64 24
  %48 = load i8, ptr %47, align 4, !tbaa !27
  %.not62 = icmp eq i8 %48, 0
  br i1 %.not62, label %67, label %49

49:                                               ; preds = %46
  %50 = sub nsw i32 %34, %39
  %51 = getelementptr inbounds nuw i8, ptr %0, i64 10
  %52 = load i16, ptr %51, align 2, !tbaa !11
  %53 = icmp eq i16 %52, 0
  %54 = icmp eq i32 %41, 1
  %or.cond63 = and i1 %54, %53
  br i1 %or.cond63, label %55, label %60

55:                                               ; preds = %49
  %56 = getelementptr inbounds nuw i8, ptr %0, i64 8
  %57 = load i8, ptr %56, align 4, !tbaa !4
  %58 = and i8 %57, 112
  %59 = icmp eq i8 %58, 0
  br i1 %59, label %62, label %60

60:                                               ; preds = %55, %49
  %61 = call fastcc i32 @decShiftToMost(ptr noundef nonnull %51, i32 noundef %41, i32 noundef %50)
  store i32 %61, ptr %0, align 4, !tbaa !10
  %.pre64 = load i32, ptr %11, align 4, !tbaa !9
  br label %62

62:                                               ; preds = %60, %55
  %63 = phi i32 [ %.pre64, %60 ], [ %34, %55 ]
  %64 = sub nsw i32 %63, %50
  store i32 %64, ptr %11, align 4, !tbaa !9
  %65 = load i32, ptr %3, align 4, !tbaa !16
  %66 = or i32 %65, 1024
  store i32 %66, ptr %3, align 4, !tbaa !16
  br label %67

.critedge:                                        ; preds = %28, %21, %14
  call void @llvm.lifetime.end.p0(i64 12, ptr nonnull %5) #18
  br label %67

67:                                               ; preds = %46, %33, %.critedge, %62, %45
  ret void
}